target datalayout = "e-m:e-p270:32:32-p271:32:32-p272:64:64-i64:64-i128:128-f80:128-n8:16:32:64-S128"
target triple = "x86_64-pc-linux-gnu"

%struct.H5FL_reg_head_t = type { i8, i32, i32, ptr, i64, ptr }
%struct.H5MF_free_section_t = type { %struct.H5FS_section_info_t }
%struct.H5FS_section_info_t = type { i64, i64, i32, i32 }
%struct.H5MF_sect_ud_t = type { ptr, i32, i8, i8, i32, ptr }
%struct.H5F_t = type { ptr, ptr, ptr, ptr, i32, ptr, i8, i8, ptr, i32 }
%struct.H5F_shared_t = type { ptr, ptr, ptr, i8, i32, i32, %struct.H5F_mtab_t, ptr, i8, i8, i64, i32, i32, i64, i64, ptr, ptr, %struct.H5AC_cache_config_t, %struct.H5AC_cache_image_config_t, i8, i8, ptr, i64, i32, i8, i64, i64, double, i64, i64, i64, i32, i32, i32, i8, i32, ptr, ptr, ptr, ptr, i8, i8, i8, i64, i64, ptr, ptr, i32, i64, i8, i32, i8, i64, i8, [13 x i32], [13 x i64], [13 x ptr], i8, i64, i64, [7 x i32], [7 x i32], %struct.H5F_blk_aggr_t, %struct.H5F_blk_aggr_t, i64, i64, %struct.H5F_meta_accum_t, i32, i32, [30 x ptr], %struct.H5F_object_flush_t, i8, ptr }
%struct.H5F_mtab_t = type { i32, i32, ptr }
%struct.H5AC_cache_config_t = type { i32, i8, i8, i8, [1025 x i8], i8, i8, i64, double, i64, i64, i64, i32, double, double, i8, i64, i32, double, double, i32, double, double, i8, i64, i32, i8, double, i64, i32 }
%struct.H5AC_cache_image_config_t = type { i32, i8, i8, i32 }
%struct.H5F_blk_aggr_t = type { i64, i64, i64, i64, i64 }
%struct.H5F_meta_accum_t = type { ptr, i64, i64, i64, i64, i64, i8 }
%struct.H5F_object_flush_t = type { ptr, ptr }

@H5_H5MF_free_section_t_reg_free_list = internal global %struct.H5FL_reg_head_t { i8 0, i32 0, i32 0, ptr @.str.2, i64 24, ptr null }, align 8
@.str = private unnamed_addr constant [105 x i8] c"generated/home/dtcxzyw/WorkSpace/Projects/compilers/llvm-opt-benchmark/bench/hdf5/hdf5/src/H5MFsection.c\00", align 1
@H5E_RESOURCE_g = external global i64, align 8
@H5E_CANTRELEASE_g = external global i64, align 8
@.str.4 = private unnamed_addr constant [24 x i8] c"can't free section node\00", align 1
@H5E_CANTFREE_g = external global i64, align 8
@__func__.H5MF__sect_small_merge = private unnamed_addr constant [23 x i8] c"H5MF__sect_small_merge\00", align 1
@.str.11 = private unnamed_addr constant [26 x i8] c"can't free merged section\00", align 1

; Function Attrs: nounwind uwtable
define i32 @H5MF__sect_free(ptr noundef %0) #0 {
  %2 = alloca ptr, align 8
  %3 = alloca ptr, align 8
  store ptr %0, ptr %2, align 8
  %4 = load ptr, ptr %2, align 8
  store ptr %4, ptr %3, align 8
  %5 = load ptr, ptr %3, align 8
  %6 = call ptr @H5FL_reg_free(ptr noundef @H5_H5MF_free_section_t_reg_free_list, ptr noundef %5)
  store ptr %6, ptr %3, align 8
  ret i32 0
}

; Function Attrs: nounwind uwtable
define internal i32 @H5MF__sect_small_merge(ptr noundef %0, ptr noundef %1, ptr noundef %2) #0 {
  %4 = alloca ptr, align 8
  %5 = alloca ptr, align 8
  %6 = alloca ptr, align 8
  %7 = alloca ptr, align 8
  %8 = alloca ptr, align 8
  %9 = alloca ptr, align 8
  %10 = alloca i32, align 4
  %11 = alloca i8, align 1
  store ptr %0, ptr %4, align 8
  store ptr %1, ptr %5, align 8
  store ptr %2, ptr %6, align 8
  %12 = load ptr, ptr %4, align 8
  store ptr %12, ptr %7, align 8
  %13 = load ptr, ptr %5, align 8
  store ptr %13, ptr %8, align 8
  %14 = load ptr, ptr %6, align 8
  store ptr %14, ptr %9, align 8
  store i32 0, ptr %10, align 4
  store i8 0, ptr %11, align 1
  %15 = load ptr, ptr %8, align 8
  %16 = getelementptr inbounds %struct.H5MF_free_section_t, ptr %15, i32 0, i32 0
  %17 = getelementptr inbounds %struct.H5FS_section_info_t, ptr %16, i32 0, i32 1
  %18 = load i64, ptr %17, align 8
  %19 = load ptr, ptr %7, align 8
  %20 = load ptr, ptr %19, align 8
  %21 = getelementptr inbounds %struct.H5MF_free_section_t, ptr %20, i32 0, i32 0
  %22 = getelementptr inbounds %struct.H5FS_section_info_t, ptr %21, i32 0, i32 1
  %23 = load i64, ptr %22, align 8
  %24 = add i64 %23, %18
  store i64 %24, ptr %22, align 8
  %25 = load ptr, ptr %7, align 8
  %26 = load ptr, ptr %25, align 8
  %27 = getelementptr inbounds %struct.H5MF_free_section_t, ptr %26, i32 0, i32 0
  %28 = getelementptr inbounds %struct.H5FS_section_info_t, ptr %27, i32 0, i32 1
  %29 = load i64, ptr %28, align 8
  %30 = load ptr, ptr %9, align 8
  %31 = getelementptr inbounds %struct.H5MF_sect_ud_t, ptr %30, i32 0, i32 0
  %32 = load ptr, ptr %31, align 8
  %33 = getelementptr inbounds %struct.H5F_t, ptr %32, i32 0, i32 2
  %34 = load ptr, ptr %33, align 8
  %35 = getelementptr inbounds %struct.H5F_shared_t, ptr %34, i32 0, i32 64
  %36 = load i64, ptr %35, align 8
  %37 = icmp eq i64 %29, %36
  br i1 %37, label %38, label %137

38:                                               ; preds = %3
  %39 = load ptr, ptr %9, align 8
  %40 = getelementptr inbounds %struct.H5MF_sect_ud_t, ptr %39, i32 0, i32 0
  %41 = load ptr, ptr %40, align 8
  %42 = load ptr, ptr %9, align 8
  %43 = getelementptr inbounds %struct.H5MF_sect_ud_t, ptr %42, i32 0, i32 1
  %44 = load i32, ptr %43, align 8
  %45 = load ptr, ptr %7, align 8
  %46 = load ptr, ptr %45, align 8
  %47 = getelementptr inbounds %struct.H5MF_free_section_t, ptr %46, i32 0, i32 0
  %48 = getelementptr inbounds %struct.H5FS_section_info_t, ptr %47, i32 0, i32 0
  %49 = load i64, ptr %48, align 8
  %50 = load ptr, ptr %7, align 8
  %51 = load ptr, ptr %50, align 8
  %52 = getelementptr inbounds %struct.H5MF_free_section_t, ptr %51, i32 0, i32 0
  %53 = getelementptr inbounds %struct.H5FS_section_info_t, ptr %52, i32 0, i32 1
  %54 = load i64, ptr %53, align 8
  %55 = call i32 @H5MF_xfree(ptr noundef %41, i32 noundef %44, i64 noundef %49, i64 noundef %54)
  %56 = icmp slt i32 %55, 0
  br i1 %56, label %57, label %72

57:                                               ; preds = %38
  br label %58

58:                                               ; preds = %57
  br label %59

59:                                               ; preds = %58
  br label %60

60:                                               ; preds = %59
  %61 = load i64, ptr @H5E_RESOURCE_g, align 8
  %62 = load i64, ptr @H5E_CANTFREE_g, align 8
  %63 = call i32 (ptr, ptr, i32, i64, i64, ptr, ...) @H5E_printf_stack(ptr noundef @.str, ptr noundef @__func__.H5MF__sect_small_merge, i32 noundef 719, i64 noundef %61, i64 noundef %62, ptr noundef @.str.11)
  br label %64

64:                                               ; preds = %60
  store i8 1, ptr %11, align 1
  %65 = load i8, ptr %11, align 1
  %66 = trunc i8 %65 to i1
  %67 = zext i1 %66 to i8
  store i8 %67, ptr %11, align 1
  br label %68

68:                                               ; preds = %64
  br label %69

69:                                               ; preds = %68
  store i32 -1, ptr %10, align 4
  br label %157

70:                                               ; No predecessors!
  br label %71

71:                                               ; preds = %70
  br label %72

72:                                               ; preds = %71, %38
  %73 = load ptr, ptr %9, align 8
  %74 = getelementptr inbounds %struct.H5MF_sect_ud_t, ptr %73, i32 0, i32 0
  %75 = load ptr, ptr %74, align 8
  %76 = getelementptr inbounds %struct.H5F_t, ptr %75, i32 0, i32 2
  %77 = load ptr, ptr %76, align 8
  %78 = getelementptr inbounds %struct.H5F_shared_t, ptr %77, i32 0, i32 15
  %79 = load ptr, ptr %78, align 8
  %80 = icmp ne ptr %79, null
  br i1 %80, label %81, label %115

81:                                               ; preds = %72
  %82 = load ptr, ptr %9, align 8
  %83 = getelementptr inbounds %struct.H5MF_sect_ud_t, ptr %82, i32 0, i32 1
  %84 = load i32, ptr %83, align 8
  %85 = icmp ne i32 %84, 3
  br i1 %85, label %86, label %115

86:                                               ; preds = %81
  %87 = load ptr, ptr %9, align 8
  %88 = getelementptr inbounds %struct.H5MF_sect_ud_t, ptr %87, i32 0, i32 0
  %89 = load ptr, ptr %88, align 8
  %90 = getelementptr inbounds %struct.H5F_t, ptr %89, i32 0, i32 2
  %91 = load ptr, ptr %90, align 8
  %92 = load ptr, ptr %7, align 8
  %93 = load ptr, ptr %92, align 8
  %94 = getelementptr inbounds %struct.H5MF_free_section_t, ptr %93, i32 0, i32 0
  %95 = getelementptr inbounds %struct.H5FS_section_info_t, ptr %94, i32 0, i32 0
  %96 = load i64, ptr %95, align 8
  %97 = call i32 @H5PB_remove_entry(ptr noundef %91, i64 noundef %96)
  %98 = icmp slt i32 %97, 0
  br i1 %98, label %99, label %114

99:                                               ; preds = %86
  br label %100

100:                                              ; preds = %99
  br label %101

101:                                              ; preds = %100
  br label %102

102:                                              ; preds = %101
  %103 = load i64, ptr @H5E_RESOURCE_g, align 8
  %104 = load i64, ptr @H5E_CANTFREE_g, align 8
  %105 = call i32 (ptr, ptr, i32, i64, i64, ptr, ...) @H5E_printf_stack(ptr noundef @.str, ptr noundef @__func__.H5MF__sect_small_merge, i32 noundef 727, i64 noundef %103, i64 noundef %104, ptr noundef @.str.11)
  br label %106

106:                                              ; preds = %102
  store i8 1, ptr %11, align 1
  %107 = load i8, ptr %11, align 1
  %108 = trunc i8 %107 to i1
  %109 = zext i1 %108 to i8
  store i8 %109, ptr %11, align 1
  br label %110

110:                                              ; preds = %106
  br label %111

111:                                              ; preds = %110
  store i32 -1, ptr %10, align 4
  br label %157

112:                                              ; No predecessors!
  br label %113

113:                                              ; preds = %112
  br label %114

114:                                              ; preds = %113, %86
  br label %115

115:                                              ; preds = %114, %81, %72
  %116 = load ptr, ptr %7, align 8
  %117 = load ptr, ptr %116, align 8
  %118 = call i32 @H5MF__sect_free(ptr noundef %117)
  %119 = icmp slt i32 %118, 0
  br i1 %119, label %120, label %135

120:                                              ; preds = %115
  br label %121

121:                                              ; preds = %120
  br label %122

122:                                              ; preds = %121
  br label %123

123:                                              ; preds = %122
  %124 = load i64, ptr @H5E_RESOURCE_g, align 8
  %125 = load i64, ptr @H5E_CANTRELEASE_g, align 8
  %126 = call i32 (ptr, ptr, i32, i64, i64, ptr, ...) @H5E_printf_stack(ptr noundef @.str, ptr noundef @__func__.H5MF__sect_small_merge, i32 noundef 730, i64 noundef %124, i64 noundef %125, ptr noundef @.str.4)
  br label %127

127:                                              ; preds = %123
  store i8 1, ptr %11, align 1
  %128 = load i8, ptr %11, align 1
  %129 = trunc i8 %128 to i1
  %130 = zext i1 %129 to i8
  store i8 %130, ptr %11, align 1
  br label %131

131:                                              ; preds = %127
  br label %132

132:                                              ; preds = %131
  store i32 -1, ptr %10, align 4
  br label %157

133:                                              ; No predecessors!
  br label %134

134:                                              ; preds = %133
  br label %135

135:                                              ; preds = %134, %115
  %136 = load ptr, ptr %7, align 8
  store ptr null, ptr %136, align 8
  br label %137

137:                                              ; preds = %135, %3
  %138 = load ptr, ptr %8, align 8
  %139 = call i32 @H5MF__sect_free(ptr noundef %138)
  %140 = icmp slt i32 %139, 0
  br i1 %140, label %141, label %156

141:                                              ; preds = %137
  br label %142

142:                                              ; preds = %141
  br label %143

143:                                              ; preds = %142
  br label %144

144:                                              ; preds = %143
  %145 = load i64, ptr @H5E_RESOURCE_g, align 8
  %146 = load i64, ptr @H5E_CANTRELEASE_g, align 8
  %147 = call i32 (ptr, ptr, i32, i64, i64, ptr, ...) @H5E_printf_stack(ptr noundef @.str, ptr noundef @__func__.H5MF__sect_small_merge, i32 noundef 736, i64 noundef %145, i64 noundef %146, ptr noundef @.str.4)
  br label %148

148:                                              ; preds = %144
  store i8 1, ptr %11, align 1
  %149 = load i8, ptr %11, align 1
  %150 = trunc i8 %149 to i1
  %151 = zext i1 %150 to i8
  store i8 %151, ptr %11, align 1
  br label %152

152:                                              ; preds = %148
  br label %153

153:                                              ; preds = %152
  store i32 -1, ptr %10, align 4
  br label %157

154:                                              ; No predecessors!
  br label %155

155:                                              ; preds = %154
  br label %156

156:                                              ; preds = %155, %137
  br label %157

157:                                              ; preds = %156, %153, %132, %111, %69
  %158 = load i32, ptr %10, align 4
  ret i32 %158
}