; Function Attrs: nounwind uwtable
define internal range(i32 -1, 1) i32 @H5MF__sect_small_merge(ptr nocapture noundef %0, ptr noundef %1, ptr nocapture noundef readonly %2) #0 {
  %4 = getelementptr inbounds i8, ptr %1, i64 8
  %5 = load i64, ptr %4, align 8
  %6 = load ptr, ptr %0, align 8
  %7 = getelementptr inbounds i8, ptr %6, i64 8
  %8 = load i64, ptr %7, align 8
  %9 = add i64 %8, %5
  store i64 %9, ptr %7, align 8
  %10 = load ptr, ptr %0, align 8
  %11 = getelementptr inbounds i8, ptr %10, i64 8
  %12 = load i64, ptr %11, align 8
  %13 = load ptr, ptr %2, align 8
  %14 = getelementptr inbounds i8, ptr %13, i64 16
  %15 = load ptr, ptr %14, align 8
  %16 = getelementptr inbounds i8, ptr %15, i64 1984
  %17 = load i64, ptr %16, align 8
  %18 = icmp eq i64 %12, %17
  br i1 %18, label %19, label %49

19:                                               ; preds = %3
  %20 = getelementptr inbounds i8, ptr %2, i64 8
  %21 = load i32, ptr %20, align 8
  %22 = load i64, ptr %10, align 8
  %23 = tail call i32 @H5MF_xfree(ptr noundef nonnull %13, i32 noundef %21, i64 noundef %22, i64 noundef %12) #5
  %24 = icmp slt i32 %23, 0
  br i1 %24, label %25, label %29

25:                                               ; preds = %19
  %26 = load i64, ptr @H5E_RESOURCE_g, align 8
  %27 = load i64, ptr @H5E_CANTFREE_g, align 8
  %28 = tail call i32 (ptr, ptr, i32, i64, i64, ptr, ...) @H5E_printf_stack(ptr noundef nonnull @.str, ptr noundef nonnull @__func__.H5MF__sect_small_merge, i32 noundef 719, i64 noundef %26, i64 noundef %27, ptr noundef nonnull @.str.11) #5
  br label %51

29:                                               ; preds = %19
  %30 = load ptr, ptr %2, align 8
  %31 = getelementptr inbounds i8, ptr %30, i64 16
  %32 = load ptr, ptr %31, align 8
  %33 = getelementptr inbounds i8, ptr %32, i64 104
  %34 = load ptr, ptr %33, align 8
  %.not = icmp eq ptr %34, null
  br i1 %.not, label %46, label %35

35:                                               ; preds = %29
  %36 = load i32, ptr %20, align 8
  %.not23 = icmp eq i32 %36, 3
  br i1 %.not23, label %46, label %37

37:                                               ; preds = %35
  %38 = load ptr, ptr %0, align 8
  %39 = load i64, ptr %38, align 8
  %40 = tail call i32 @H5PB_remove_entry(ptr noundef nonnull %32, i64 noundef %39) #5
  %41 = icmp slt i32 %40, 0
  br i1 %41, label %42, label %46

42:                                               ; preds = %37
  %43 = load i64, ptr @H5E_RESOURCE_g, align 8
  %44 = load i64, ptr @H5E_CANTFREE_g, align 8
  %45 = tail call i32 (ptr, ptr, i32, i64, i64, ptr, ...) @H5E_printf_stack(ptr noundef nonnull @.str, ptr noundef nonnull @__func__.H5MF__sect_small_merge, i32 noundef 727, i64 noundef %43, i64 noundef %44, ptr noundef nonnull @.str.11) #5
  br label %51

46:                                               ; preds = %37, %35, %29
  %47 = load ptr, ptr %0, align 8
  %48 = tail call ptr @H5FL_reg_free(ptr noundef nonnull @H5_H5MF_free_section_t_reg_free_list, ptr noundef %47) #5
  store ptr null, ptr %0, align 8
  br label %49

49:                                               ; preds = %46, %3
  %50 = tail call ptr @H5FL_reg_free(ptr noundef nonnull @H5_H5MF_free_section_t_reg_free_list, ptr noundef nonnull %1) #5
  br label %51

51:                                               ; preds = %49, %42, %25
  %.0 = phi i32 [ -1, %25 ], [ -1, %42 ], [ 0, %49 ]
  ret i32 %.0
}